ARM GAS  /tmp/ccCWtyvt.s 			page 1


   1              		.cpu cortex-m4
   2              		.arch armv7e-m
   3              		.fpu fpv4-sp-d16
   4              		.eabi_attribute 27, 1
   5              		.eabi_attribute 28, 1
   6              		.eabi_attribute 20, 1
   7              		.eabi_attribute 21, 1
   8              		.eabi_attribute 23, 3
   9              		.eabi_attribute 24, 1
  10              		.eabi_attribute 25, 1
  11              		.eabi_attribute 26, 1
  12              		.eabi_attribute 30, 4
  13              		.eabi_attribute 34, 1
  14              		.eabi_attribute 18, 4
  15              		.file	"Func_0_0_Trans_2_CLK_9_Init.c"
  16              		.text
  17              		.section	.text.Func_0_0_Trans_2_CLK_9_Init_0_Basic,"ax",%progbits
  18              		.align	1
  19              		.global	Func_0_0_Trans_2_CLK_9_Init_0_Basic
  20              		.syntax unified
  21              		.thumb
  22              		.thumb_func
  24              	Func_0_0_Trans_2_CLK_9_Init_0_Basic:
  25              		@ args = 0, pretend = 0, frame = 8
  26              		@ frame_needed = 0, uses_anonymous_args = 0
  27 0000 07B5     		push	{r0, r1, r2, lr}
  28 0002 FFF7FEFF 		bl	Func_0_0_Trans_2_CLK_0_HSE_Enable_0_Basic
  29              	.L2:
  30 0006 01A8     		add	r0, sp, #4
  31 0008 FFF7FEFF 		bl	Func_0_0_Trans_2_CLK_0_HSE_IsReady_0_Basic
  32 000c 019B     		ldr	r3, [sp, #4]
  33 000e 012B     		cmp	r3, #1
  34 0010 F9D1     		bne	.L2
  35 0012 0023     		movs	r3, #0
  36 0014 5422     		movs	r2, #84
  37 0016 0421     		movs	r1, #4
  38 0018 4FF48000 		mov	r0, #4194304
  39 001c FFF7FEFF 		bl	Func_0_0_Trans_2_CLK_0_PLL_ConfigDomain_SYS_0_Basic
  40 0020 FFF7FEFF 		bl	Func_0_0_Trans_2_CLK_4_PLL_Enable_0_Basic
  41              	.L3:
  42 0024 01A8     		add	r0, sp, #4
  43 0026 FFF7FEFF 		bl	Func_0_0_Trans_2_CLK_5_PLL_IsReady_0_Basic
  44 002a 019B     		ldr	r3, [sp, #4]
  45 002c 012B     		cmp	r3, #1
  46 002e F9D1     		bne	.L3
  47 0030 0020     		movs	r0, #0
  48 0032 FFF7FEFF 		bl	Func_0_0_Trans_2_CLK_6_SetPrescaler_0_AHB
  49 0036 4FF48050 		mov	r0, #4096
  50 003a FFF7FEFF 		bl	Func_0_0_Trans_2_CLK_6_SetPrescaler_1_APB1
  51 003e 0020     		movs	r0, #0
  52 0040 FFF7FEFF 		bl	Func_0_0_Trans_2_CLK_6_SetPrescaler_2_APB2
  53 0044 0220     		movs	r0, #2
  54 0046 FFF7FEFF 		bl	Func_0_0_Trans_2_CLK_7_SetSysClkSource_0_Basic
  55              	.L4:
  56 004a 01A8     		add	r0, sp, #4
  57 004c FFF7FEFF 		bl	Func_0_0_Trans_2_CLK_8_GetSysClkSource_0_Basic
  58 0050 019B     		ldr	r3, [sp, #4]
ARM GAS  /tmp/ccCWtyvt.s 			page 2


  59 0052 082B     		cmp	r3, #8
  60 0054 F9D1     		bne	.L4
  61 0056 0848     		ldr	r0, .L8
  62 0058 FFF7FEFF 		bl	LL_Init1msTick
  63 005c 0648     		ldr	r0, .L8
  64 005e FFF7FEFF 		bl	LL_SetSystemCoreClock
  65 0062 064A     		ldr	r2, .L8+4
  66 0064 D2F88C30 		ldr	r3, [r2, #140]
  67 0068 23F08073 		bic	r3, r3, #16777216
  68 006c C2F88C30 		str	r3, [r2, #140]
  69 0070 03B0     		add	sp, sp, #12
  70              		@ sp needed
  71 0072 5DF804FB 		ldr	pc, [sp], #4
  72              	.L9:
  73 0076 00BF     		.align	2
  74              	.L8:
  75 0078 00BD0105 		.word	84000000
  76 007c 00380240 		.word	1073887232
  78              		.ident	"GCC: (GNU Arm Embedded Toolchain 10.3-2021.10) 10.3.1 20210824 (release)"
ARM GAS  /tmp/ccCWtyvt.s 			page 3


DEFINED SYMBOLS
                            *ABS*:0000000000000000 Func_0_0_Trans_2_CLK_9_Init.c
     /tmp/ccCWtyvt.s:18     .text.Func_0_0_Trans_2_CLK_9_Init_0_Basic:0000000000000000 $t
     /tmp/ccCWtyvt.s:24     .text.Func_0_0_Trans_2_CLK_9_Init_0_Basic:0000000000000000 Func_0_0_Trans_2_CLK_9_Init_0_Basic
     /tmp/ccCWtyvt.s:75     .text.Func_0_0_Trans_2_CLK_9_Init_0_Basic:0000000000000078 $d

UNDEFINED SYMBOLS
Func_0_0_Trans_2_CLK_0_HSE_Enable_0_Basic
Func_0_0_Trans_2_CLK_0_HSE_IsReady_0_Basic
Func_0_0_Trans_2_CLK_0_PLL_ConfigDomain_SYS_0_Basic
Func_0_0_Trans_2_CLK_4_PLL_Enable_0_Basic
Func_0_0_Trans_2_CLK_5_PLL_IsReady_0_Basic
Func_0_0_Trans_2_CLK_6_SetPrescaler_0_AHB
Func_0_0_Trans_2_CLK_6_SetPrescaler_1_APB1
Func_0_0_Trans_2_CLK_6_SetPrescaler_2_APB2
Func_0_0_Trans_2_CLK_7_SetSysClkSource_0_Basic
Func_0_0_Trans_2_CLK_8_GetSysClkSource_0_Basic
LL_Init1msTick
LL_SetSystemCoreClock
