ARM GAS  /tmp/ccHexEHc.s 			page 1


   1              		.cpu cortex-m4
   2              		.arch armv7e-m
   3              		.fpu fpv4-sp-d16
   4              		.eabi_attribute 27, 1
   5              		.eabi_attribute 28, 1
   6              		.eabi_attribute 20, 1
   7              		.eabi_attribute 21, 1
   8              		.eabi_attribute 23, 3
   9              		.eabi_attribute 24, 1
  10              		.eabi_attribute 25, 1
  11              		.eabi_attribute 26, 1
  12              		.eabi_attribute 30, 4
  13              		.eabi_attribute 34, 1
  14              		.eabi_attribute 18, 4
  15              		.file	"stm32f4xx_ll_utils.c"
  16              		.text
  17              		.section	.text.UTILS_PLL_IsBusy,"ax",%progbits
  18              		.align	1
  19              		.syntax unified
  20              		.thumb
  21              		.thumb_func
  23              	UTILS_PLL_IsBusy:
  24              		@ args = 0, pretend = 0, frame = 0
  25              		@ frame_needed = 0, uses_anonymous_args = 0
  26              		@ link register save eliminated.
  27 0000 054B     		ldr	r3, .L2
  28 0002 1A68     		ldr	r2, [r3]
  29 0004 1B68     		ldr	r3, [r3]
  30 0006 02F00072 		and	r2, r2, #33554432
  31 000a 03F00063 		and	r3, r3, #134217728
  32 000e 1343     		orrs	r3, r2, r3
  33 0010 14BF     		ite	ne
  34 0012 0120     		movne	r0, #1
  35 0014 0020     		moveq	r0, #0
  36 0016 7047     		bx	lr
  37              	.L3:
  38              		.align	2
  39              	.L2:
  40 0018 00380240 		.word	1073887232
  42              		.section	.text.LL_Init1msTick,"ax",%progbits
  43              		.align	1
  44              		.global	LL_Init1msTick
  45              		.syntax unified
  46              		.thumb
  47              		.thumb_func
  49              	LL_Init1msTick:
  50              		@ args = 0, pretend = 0, frame = 0
  51              		@ frame_needed = 0, uses_anonymous_args = 0
  52              		@ link register save eliminated.
  53 0000 4FF47A73 		mov	r3, #1000
  54 0004 B0FBF3F0 		udiv	r0, r0, r3
  55 0008 4FF0E023 		mov	r3, #-536813568
  56 000c 0022     		movs	r2, #0
  57 000e 0138     		subs	r0, r0, #1
  58 0010 5861     		str	r0, [r3, #20]
  59 0012 9A61     		str	r2, [r3, #24]
  60 0014 0522     		movs	r2, #5
ARM GAS  /tmp/ccHexEHc.s 			page 2


  61 0016 1A61     		str	r2, [r3, #16]
  62 0018 7047     		bx	lr
  64              		.section	.text.LL_mDelay,"ax",%progbits
  65              		.align	1
  66              		.global	LL_mDelay
  67              		.syntax unified
  68              		.thumb
  69              		.thumb_func
  71              	LL_mDelay:
  72              		@ args = 0, pretend = 0, frame = 8
  73              		@ frame_needed = 0, uses_anonymous_args = 0
  74              		@ link register save eliminated.
  75 0000 4FF0E023 		mov	r3, #-536813568
  76 0004 82B0     		sub	sp, sp, #8
  77 0006 1B69     		ldr	r3, [r3, #16]
  78 0008 0193     		str	r3, [sp, #4]
  79 000a 411C     		adds	r1, r0, #1
  80 000c 019B     		ldr	r3, [sp, #4]
  81 000e 18BF     		it	ne
  82 0010 0130     		addne	r0, r0, #1
  83 0012 4FF0E023 		mov	r3, #-536813568
  84              	.L8:
  85 0016 08B9     		cbnz	r0, .L9
  86 0018 02B0     		add	sp, sp, #8
  87              		@ sp needed
  88 001a 7047     		bx	lr
  89              	.L9:
  90 001c 1A69     		ldr	r2, [r3, #16]
  91 001e D203     		lsls	r2, r2, #15
  92 0020 48BF     		it	mi
  93 0022 00F1FF30 		addmi	r0, r0, #-1
  94 0026 F6E7     		b	.L8
  96              		.section	.text.LL_SetSystemCoreClock,"ax",%progbits
  97              		.align	1
  98              		.global	LL_SetSystemCoreClock
  99              		.syntax unified
 100              		.thumb
 101              		.thumb_func
 103              	LL_SetSystemCoreClock:
 104              		@ args = 0, pretend = 0, frame = 0
 105              		@ frame_needed = 0, uses_anonymous_args = 0
 106              		@ link register save eliminated.
 107 0000 014B     		ldr	r3, .L16
 108 0002 1860     		str	r0, [r3]
 109 0004 7047     		bx	lr
 110              	.L17:
 111 0006 00BF     		.align	2
 112              	.L16:
 113 0008 00000000 		.word	SystemCoreClock
 115              		.section	.text.LL_SetFlashLatency,"ax",%progbits
 116              		.align	1
 117              		.global	LL_SetFlashLatency
 118              		.syntax unified
 119              		.thumb
 120              		.thumb_func
 122              	LL_SetFlashLatency:
 123              		@ args = 0, pretend = 0, frame = 0
ARM GAS  /tmp/ccHexEHc.s 			page 3


 124              		@ frame_needed = 0, uses_anonymous_args = 0
 125              		@ link register save eliminated.
 126 0000 0028     		cmp	r0, #0
 127 0002 34D0     		beq	.L19
 128 0004 1D4A     		ldr	r2, .L33
 129 0006 1368     		ldr	r3, [r2]
 130 0008 1368     		ldr	r3, [r2]
 131 000a 03F44043 		and	r3, r3, #49152
 132 000e B3F5004F 		cmp	r3, #32768
 133 0012 15D1     		bne	.L25
 134 0014 1A4B     		ldr	r3, .L33+4
 135 0016 9842     		cmp	r0, r3
 136 0018 14D8     		bhi	.L26
 137 001a 1A4B     		ldr	r3, .L33+8
 138 001c 9842     		cmp	r0, r3
 139 001e 94BF     		ite	ls
 140 0020 0023     		movls	r3, #0
 141 0022 0123     		movhi	r3, #1
 142              	.L20:
 143 0024 1268     		ldr	r2, [r2]
 144 0026 02F44042 		and	r2, r2, #49152
 145 002a B2F5804F 		cmp	r2, #16384
 146 002e 0ED1     		bne	.L21
 147 0030 134A     		ldr	r2, .L33+4
 148 0032 9042     		cmp	r0, r2
 149 0034 08D9     		bls	.L22
 150 0036 E3B1     		cbz	r3, .L27
 151              	.L23:
 152 0038 012B     		cmp	r3, #1
 153 003a 38BF     		it	cc
 154 003c 0123     		movcc	r3, #1
 155 003e 06E0     		b	.L21
 156              	.L25:
 157 0040 0023     		movs	r3, #0
 158 0042 EFE7     		b	.L20
 159              	.L26:
 160 0044 0223     		movs	r3, #2
 161 0046 EDE7     		b	.L20
 162              	.L22:
 163 0048 0E4A     		ldr	r2, .L33+8
 164 004a 9042     		cmp	r0, r2
 165 004c F4D8     		bhi	.L23
 166              	.L21:
 167 004e 0E49     		ldr	r1, .L33+12
 168 0050 0A68     		ldr	r2, [r1]
 169 0052 22F00702 		bic	r2, r2, #7
 170 0056 1A43     		orrs	r2, r2, r3
 171 0058 0A60     		str	r2, [r1]
 172 005a 0A68     		ldr	r2, [r1]
 173 005c 02F00702 		and	r2, r2, #7
 174 0060 9342     		cmp	r3, r2
 175 0062 08D0     		beq	.L29
 176 0064 0A68     		ldr	r2, [r1]
 177 0066 02F00702 		and	r2, r2, #7
 178 006a 9342     		cmp	r3, r2
 179 006c 03D0     		beq	.L29
 180              	.L19:
ARM GAS  /tmp/ccHexEHc.s 			page 4


 181 006e 0120     		movs	r0, #1
 182 0070 7047     		bx	lr
 183              	.L27:
 184 0072 0223     		movs	r3, #2
 185 0074 EBE7     		b	.L21
 186              	.L29:
 187 0076 0020     		movs	r0, #0
 188 0078 7047     		bx	lr
 189              	.L34:
 190 007a 00BF     		.align	2
 191              	.L33:
 192 007c 00700040 		.word	1073770496
 193 0080 00879303 		.word	60000000
 194 0084 80C3C901 		.word	30000000
 195 0088 003C0240 		.word	1073888256
 197              		.section	.text.UTILS_EnablePLLAndSwitchSystem,"ax",%progbits
 198              		.align	1
 199              		.syntax unified
 200              		.thumb
 201              		.thumb_func
 203              	UTILS_EnablePLLAndSwitchSystem:
 204              		@ args = 0, pretend = 0, frame = 0
 205              		@ frame_needed = 0, uses_anonymous_args = 0
 206 0000 0B68     		ldr	r3, [r1]
 207 0002 214A     		ldr	r2, .L49
 208 0004 C3F30313 		ubfx	r3, r3, #4, #4
 209 0008 70B5     		push	{r4, r5, r6, lr}
 210 000a D35C     		ldrb	r3, [r2, r3]	@ zero_extendqisi2
 211 000c 1F4E     		ldr	r6, .L49+4
 212 000e 20FA03F4 		lsr	r4, r0, r3
 213 0012 3368     		ldr	r3, [r6]
 214 0014 A342     		cmp	r3, r4
 215 0016 0D46     		mov	r5, r1
 216 0018 27D3     		bcc	.L36
 217              	.L38:
 218 001a 1D4B     		ldr	r3, .L49+8
 219 001c 1A68     		ldr	r2, [r3]
 220 001e 42F08072 		orr	r2, r2, #16777216
 221 0022 1A60     		str	r2, [r3]
 222              	.L37:
 223 0024 1A68     		ldr	r2, [r3]
 224 0026 9201     		lsls	r2, r2, #6
 225 0028 FCD5     		bpl	.L37
 226 002a 9A68     		ldr	r2, [r3, #8]
 227 002c 2968     		ldr	r1, [r5]
 228 002e 22F0F002 		bic	r2, r2, #240
 229 0032 0A43     		orrs	r2, r2, r1
 230 0034 9A60     		str	r2, [r3, #8]
 231 0036 9A68     		ldr	r2, [r3, #8]
 232 0038 22F00302 		bic	r2, r2, #3
 233 003c 42F00202 		orr	r2, r2, #2
 234 0040 9A60     		str	r2, [r3, #8]
 235 0042 134B     		ldr	r3, .L49+8
 236              	.L40:
 237 0044 9A68     		ldr	r2, [r3, #8]
 238 0046 02F00C02 		and	r2, r2, #12
 239 004a 082A     		cmp	r2, #8
ARM GAS  /tmp/ccHexEHc.s 			page 5


 240 004c FAD1     		bne	.L40
 241 004e 9A68     		ldr	r2, [r3, #8]
 242 0050 6968     		ldr	r1, [r5, #4]
 243 0052 22F4E052 		bic	r2, r2, #7168
 244 0056 0A43     		orrs	r2, r2, r1
 245 0058 9A60     		str	r2, [r3, #8]
 246 005a 9A68     		ldr	r2, [r3, #8]
 247 005c A968     		ldr	r1, [r5, #8]
 248 005e 22F46042 		bic	r2, r2, #57344
 249 0062 0A43     		orrs	r2, r2, r1
 250 0064 9A60     		str	r2, [r3, #8]
 251 0066 0020     		movs	r0, #0
 252 0068 04E0     		b	.L39
 253              	.L36:
 254 006a 2046     		mov	r0, r4
 255 006c FFF7FEFF 		bl	LL_SetFlashLatency
 256 0070 0028     		cmp	r0, #0
 257 0072 D2D0     		beq	.L38
 258              	.L39:
 259 0074 3368     		ldr	r3, [r6]
 260 0076 A342     		cmp	r3, r4
 261 0078 02D9     		bls	.L41
 262 007a 2046     		mov	r0, r4
 263 007c FFF7FEFF 		bl	LL_SetFlashLatency
 264              	.L41:
 265 0080 00B9     		cbnz	r0, .L42
 266 0082 3460     		str	r4, [r6]
 267              	.L42:
 268 0084 70BD     		pop	{r4, r5, r6, pc}
 269              	.L50:
 270 0086 00BF     		.align	2
 271              	.L49:
 272 0088 00000000 		.word	AHBPrescTable
 273 008c 00000000 		.word	SystemCoreClock
 274 0090 00380240 		.word	1073887232
 276              		.section	.text.LL_PLL_ConfigSystemClock_HSI,"ax",%progbits
 277              		.align	1
 278              		.global	LL_PLL_ConfigSystemClock_HSI
 279              		.syntax unified
 280              		.thumb
 281              		.thumb_func
 283              	LL_PLL_ConfigSystemClock_HSI:
 284              		@ args = 0, pretend = 0, frame = 0
 285              		@ frame_needed = 0, uses_anonymous_args = 0
 286 0000 F8B5     		push	{r3, r4, r5, r6, r7, lr}
 287 0002 0446     		mov	r4, r0
 288 0004 FFF7FEFF 		bl	UTILS_PLL_IsBusy
 289 0008 58BB     		cbnz	r0, .L52
 290 000a 2768     		ldr	r7, [r4]
 291 000c 6668     		ldr	r6, [r4, #4]
 292 000e A568     		ldr	r5, [r4, #8]
 293 0010 154B     		ldr	r3, .L57
 294 0012 164A     		ldr	r2, .L57+4
 295 0014 07F03F00 		and	r0, r7, #63
 296 0018 B3FBF0F3 		udiv	r3, r3, r0
 297 001c C6F30800 		ubfx	r0, r6, #0, #9
 298 0020 4343     		muls	r3, r0, r3
ARM GAS  /tmp/ccHexEHc.s 			page 6


 299 0022 280C     		lsrs	r0, r5, #16
 300 0024 0130     		adds	r0, r0, #1
 301 0026 4000     		lsls	r0, r0, #1
 302 0028 B3FBF0F0 		udiv	r0, r3, r0
 303 002c 1368     		ldr	r3, [r2]
 304 002e 9C07     		lsls	r4, r3, #30
 305 0030 06D4     		bmi	.L53
 306 0032 1468     		ldr	r4, [r2]
 307 0034 44F00104 		orr	r4, r4, #1
 308 0038 1460     		str	r4, [r2]
 309              	.L54:
 310 003a 1368     		ldr	r3, [r2]
 311 003c 9B07     		lsls	r3, r3, #30
 312 003e FCD5     		bpl	.L54
 313              	.L53:
 314 0040 0A4A     		ldr	r2, .L57+4
 315 0042 0B4B     		ldr	r3, .L57+8
 316 0044 5468     		ldr	r4, [r2, #4]
 317 0046 2340     		ands	r3, r3, r4
 318 0048 3B43     		orrs	r3, r3, r7
 319 004a 43EA8613 		orr	r3, r3, r6, lsl #6
 320 004e 5360     		str	r3, [r2, #4]
 321 0050 5368     		ldr	r3, [r2, #4]
 322 0052 23F44033 		bic	r3, r3, #196608
 323 0056 2B43     		orrs	r3, r3, r5
 324 0058 5360     		str	r3, [r2, #4]
 325 005a BDE8F840 		pop	{r3, r4, r5, r6, r7, lr}
 326 005e FFF7FEBF 		b	UTILS_EnablePLLAndSwitchSystem
 327              	.L52:
 328 0062 0120     		movs	r0, #1
 329 0064 F8BD     		pop	{r3, r4, r5, r6, r7, pc}
 330              	.L58:
 331 0066 00BF     		.align	2
 332              	.L57:
 333 0068 0024F400 		.word	16000000
 334 006c 00380240 		.word	1073887232
 335 0070 0080BFFF 		.word	-4227072
 337              		.section	.text.LL_PLL_ConfigSystemClock_HSE,"ax",%progbits
 338              		.align	1
 339              		.global	LL_PLL_ConfigSystemClock_HSE
 340              		.syntax unified
 341              		.thumb
 342              		.thumb_func
 344              	LL_PLL_ConfigSystemClock_HSE:
 345              		@ args = 0, pretend = 0, frame = 0
 346              		@ frame_needed = 0, uses_anonymous_args = 0
 347 0000 F8B5     		push	{r3, r4, r5, r6, r7, lr}
 348 0002 0E46     		mov	r6, r1
 349 0004 0546     		mov	r5, r0
 350 0006 1446     		mov	r4, r2
 351 0008 1946     		mov	r1, r3
 352 000a FFF7FEFF 		bl	UTILS_PLL_IsBusy
 353 000e 0028     		cmp	r0, #0
 354 0010 36D1     		bne	.L60
 355 0012 2768     		ldr	r7, [r4]
 356 0014 D4F804C0 		ldr	ip, [r4, #4]
 357 0018 A368     		ldr	r3, [r4, #8]
ARM GAS  /tmp/ccHexEHc.s 			page 7


 358 001a 1A4C     		ldr	r4, .L68
 359 001c 07F03F00 		and	r0, r7, #63
 360 0020 B5FBF0F5 		udiv	r5, r5, r0
 361 0024 CCF30800 		ubfx	r0, ip, #0, #9
 362 0028 4543     		muls	r5, r0, r5
 363 002a 2268     		ldr	r2, [r4]
 364 002c 180C     		lsrs	r0, r3, #16
 365 002e 0130     		adds	r0, r0, #1
 366 0030 4000     		lsls	r0, r0, #1
 367 0032 B5FBF0F0 		udiv	r0, r5, r0
 368 0036 9503     		lsls	r5, r2, #14
 369 0038 0FD4     		bmi	.L61
 370 003a 2268     		ldr	r2, [r4]
 371 003c 012E     		cmp	r6, #1
 372 003e 0CBF     		ite	eq
 373 0040 42F48022 		orreq	r2, r2, #262144
 374 0044 22F48022 		bicne	r2, r2, #262144
 375 0048 2260     		str	r2, [r4]
 376 004a 2568     		ldr	r5, [r4]
 377 004c 45F48035 		orr	r5, r5, #65536
 378 0050 2560     		str	r5, [r4]
 379 0052 0C4C     		ldr	r4, .L68
 380              	.L64:
 381 0054 2268     		ldr	r2, [r4]
 382 0056 9203     		lsls	r2, r2, #14
 383 0058 FCD5     		bpl	.L64
 384              	.L61:
 385 005a 0A4C     		ldr	r4, .L68
 386 005c 0A4A     		ldr	r2, .L68+4
 387 005e 6568     		ldr	r5, [r4, #4]
 388 0060 2A40     		ands	r2, r2, r5
 389 0062 42EA8C12 		orr	r2, r2, ip, lsl #6
 390 0066 3A43     		orrs	r2, r2, r7
 391 0068 42F48002 		orr	r2, r2, #4194304
 392 006c 6260     		str	r2, [r4, #4]
 393 006e 6268     		ldr	r2, [r4, #4]
 394 0070 22F44032 		bic	r2, r2, #196608
 395 0074 1A43     		orrs	r2, r2, r3
 396 0076 6260     		str	r2, [r4, #4]
 397 0078 BDE8F840 		pop	{r3, r4, r5, r6, r7, lr}
 398 007c FFF7FEBF 		b	UTILS_EnablePLLAndSwitchSystem
 399              	.L60:
 400 0080 0120     		movs	r0, #1
 401 0082 F8BD     		pop	{r3, r4, r5, r6, r7, pc}
 402              	.L69:
 403              		.align	2
 404              	.L68:
 405 0084 00380240 		.word	1073887232
 406 0088 0080BFFF 		.word	-4227072
 408              		.ident	"GCC: (GNU Arm Embedded Toolchain 10.3-2021.10) 10.3.1 20210824 (release)"
ARM GAS  /tmp/ccHexEHc.s 			page 8

